target datalayout = "e-m:e-p270:32:32-p271:32:32-p272:64:64-i64:64-i128:128-f80:128-n8:16:32:64-S128"
target triple = "x86_64-pc-linux-gnu"

%"class.google::protobuf::io::ZeroCopyInputStream" = type { ptr }
%"class.google::protobuf::internal::LogMessage" = type { i32, ptr, i32, %"class.std::__cxx11::basic_string" }
%"class.std::__cxx11::basic_string" = type { %"struct.std::__cxx11::basic_string<char>::_Alloc_hider", i64, %union.anon }
%"struct.std::__cxx11::basic_string<char>::_Alloc_hider" = type { ptr }
%union.anon = type { i64, [8 x i8] }
%"class.google::protobuf::internal::LogFinisher" = type { i8 }
%"class.google::protobuf::io::ConcatenatingInputStream" = type { %"class.google::protobuf::io::ZeroCopyInputStream", ptr, i32, i64 }

@.str = private unnamed_addr constant [51 x i8] c"third_party/protobuf-lite/zero_copy_stream_impl.cc\00", align 1
@.str.4 = private unnamed_addr constant [57 x i8] c"CHECK failed: (final_byte_count) < (target_byte_count): \00", align 1

; Function Attrs: mustprogress uwtable
define noundef zeroext i1 @_ZN6google8protobuf2io24ConcatenatingInputStream4SkipEi(ptr noundef nonnull align 8 dereferenceable(32) %0, i32 noundef %1) unnamed_addr #4 align 2 personality ptr @__gxx_personality_v0 {
  %3 = alloca i1, align 1
  %4 = alloca ptr, align 8
  %5 = alloca i32, align 4
  %6 = alloca i64, align 8
  %7 = alloca i64, align 8
  %8 = alloca %"class.google::protobuf::internal::LogMessage", align 8
  %9 = alloca i1, align 1
  %10 = alloca ptr, align 8
  %11 = alloca i32, align 4
  %12 = alloca %"class.google::protobuf::internal::LogFinisher", align 1
  store ptr %0, ptr %4, align 8
  store i32 %1, ptr %5, align 4
  %13 = load ptr, ptr %4, align 8
  br label %14

14:                                               ; preds = %70, %2
  %15 = getelementptr inbounds %"class.google::protobuf::io::ConcatenatingInputStream", ptr %13, i32 0, i32 2
  %16 = load i32, ptr %15, align 8
  %17 = icmp sgt i32 %16, 0
  br i1 %17, label %18, label %85

18:                                               ; preds = %14
  %19 = getelementptr inbounds %"class.google::protobuf::io::ConcatenatingInputStream", ptr %13, i32 0, i32 1
  %20 = load ptr, ptr %19, align 8
  %21 = getelementptr inbounds ptr, ptr %20, i64 0
  %22 = load ptr, ptr %21, align 8
  %23 = load ptr, ptr %22, align 8
  %24 = getelementptr inbounds ptr, ptr %23, i64 5
  %25 = load ptr, ptr %24, align 8
  %26 = call noundef i64 %25(ptr noundef nonnull align 8 dereferenceable(8) %22)
  %27 = load i32, ptr %5, align 4
  %28 = sext i32 %27 to i64
  %29 = add nsw i64 %26, %28
  store i64 %29, ptr %6, align 8
  %30 = getelementptr inbounds %"class.google::protobuf::io::ConcatenatingInputStream", ptr %13, i32 0, i32 1
  %31 = load ptr, ptr %30, align 8
  %32 = getelementptr inbounds ptr, ptr %31, i64 0
  %33 = load ptr, ptr %32, align 8
  %34 = load i32, ptr %5, align 4
  %35 = load ptr, ptr %33, align 8
  %36 = getelementptr inbounds ptr, ptr %35, i64 4
  %37 = load ptr, ptr %36, align 8
  %38 = call noundef zeroext i1 %37(ptr noundef nonnull align 8 dereferenceable(8) %33, i32 noundef %34)
  br i1 %38, label %39, label %40

39:                                               ; preds = %18
  store i1 true, ptr %3, align 1
  br label %86

40:                                               ; preds = %18
  %41 = getelementptr inbounds %"class.google::protobuf::io::ConcatenatingInputStream", ptr %13, i32 0, i32 1
  %42 = load ptr, ptr %41, align 8
  %43 = getelementptr inbounds ptr, ptr %42, i64 0
  %44 = load ptr, ptr %43, align 8
  %45 = load ptr, ptr %44, align 8
  %46 = getelementptr inbounds ptr, ptr %45, i64 5
  %47 = load ptr, ptr %46, align 8
  %48 = call noundef i64 %47(ptr noundef nonnull align 8 dereferenceable(8) %44)
  store i64 %48, ptr %7, align 8
  br label %49

49:                                               ; preds = %62, %40
  br i1 false, label %50, label %70

50:                                               ; preds = %49
  %51 = load i64, ptr %7, align 8
  %52 = load i64, ptr %6, align 8
  %53 = icmp slt i64 %51, %52
  store i1 false, ptr %9, align 1
  br i1 %53, label %54, label %55

54:                                               ; preds = %50
  br label %59

55:                                               ; preds = %50
  call void @_ZN6google8protobuf8internal10LogMessageC1ENS0_8LogLevelEPKci(ptr noundef nonnull align 8 dereferenceable(56) %8, i32 noundef 3, ptr noundef @.str, i32 noundef 341)
  store i1 true, ptr %9, align 1
  %56 = invoke noundef nonnull align 8 dereferenceable(56) ptr @_ZN6google8protobuf8internal10LogMessagelsEPKc(ptr noundef nonnull align 8 dereferenceable(56) %8, ptr noundef @.str.4)
          to label %57 unwind label %63

57:                                               ; preds = %55
  invoke void @_ZN6google8protobuf8internal11LogFinisheraSERNS1_10LogMessageE(ptr noundef nonnull align 1 dereferenceable(1) %12, ptr noundef nonnull align 8 dereferenceable(56) %56)
          to label %58 unwind label %63

58:                                               ; preds = %57
  br label %59

59:                                               ; preds = %58, %54
  %60 = load i1, ptr %9, align 1
  br i1 %60, label %61, label %62

61:                                               ; preds = %59
  call void @_ZN6google8protobuf8internal10LogMessageD1Ev(ptr noundef nonnull align 8 dereferenceable(56) %8) #3
  br label %62

62:                                               ; preds = %61, %59
  br label %49, !llvm.loop !10

63:                                               ; preds = %57, %55
  %64 = landingpad { ptr, i32 }
          cleanup
  %65 = extractvalue { ptr, i32 } %64, 0
  store ptr %65, ptr %10, align 8
  %66 = extractvalue { ptr, i32 } %64, 1
  store i32 %66, ptr %11, align 4
  %67 = load i1, ptr %9, align 1
  br i1 %67, label %68, label %69

68:                                               ; preds = %63
  call void @_ZN6google8protobuf8internal10LogMessageD1Ev(ptr noundef nonnull align 8 dereferenceable(56) %8) #3
  br label %69

69:                                               ; preds = %68, %63
  br label %88

70:                                               ; preds = %49
  %71 = load i64, ptr %6, align 8
  %72 = load i64, ptr %7, align 8
  %73 = sub nsw i64 %71, %72
  %74 = trunc i64 %73 to i32
  store i32 %74, ptr %5, align 4
  %75 = load i64, ptr %7, align 8
  %76 = getelementptr inbounds %"class.google::protobuf::io::ConcatenatingInputStream", ptr %13, i32 0, i32 3
  %77 = load i64, ptr %76, align 8
  %78 = add nsw i64 %77, %75
  store i64 %78, ptr %76, align 8
  %79 = getelementptr inbounds %"class.google::protobuf::io::ConcatenatingInputStream", ptr %13, i32 0, i32 1
  %80 = load ptr, ptr %79, align 8
  %81 = getelementptr inbounds ptr, ptr %80, i32 1
  store ptr %81, ptr %79, align 8
  %82 = getelementptr inbounds %"class.google::protobuf::io::ConcatenatingInputStream", ptr %13, i32 0, i32 2
  %83 = load i32, ptr %82, align 8
  %84 = add nsw i32 %83, -1
  store i32 %84, ptr %82, align 8
  br label %14, !llvm.loop !11

85:                                               ; preds = %14
  store i1 false, ptr %3, align 1
  br label %86

86:                                               ; preds = %85, %39
  %87 = load i1, ptr %3, align 1
  ret i1 %87

88:                                               ; preds = %69
  %89 = load ptr, ptr %10, align 8
  %90 = load i32, ptr %11, align 4
  %91 = insertvalue { ptr, i32 } poison, ptr %89, 0
  %92 = insertvalue { ptr, i32 } %91, i32 %90, 1
  resume { ptr, i32 } %92
}