; Function Attrs: mustprogress uwtable
define noundef zeroext i1 @_ZN6google8protobuf2io24ConcatenatingInputStream4SkipEi(ptr nocapture noundef nonnull align 8 dereferenceable(32) %0, i32 noundef %1) unnamed_addr #3 align 2 personality ptr @__gxx_personality_v0 {
  %3 = getelementptr inbounds i8, ptr %0, i64 16
  %4 = load i32, ptr %3, align 8
  %5 = icmp sgt i32 %4, 0
  br i1 %5, label %.lr.ph, label %._crit_edge

.lr.ph:                                           ; preds = %2
  %6 = getelementptr inbounds i8, ptr %0, i64 8
  %7 = getelementptr inbounds i8, ptr %0, i64 24
  %.pre = load ptr, ptr %6, align 8
  br label %8

8:                                                ; preds = %.lr.ph, %21
  %9 = phi ptr [ %.pre, %.lr.ph ], [ %35, %21 ]
  %.067 = phi i32 [ %1, %.lr.ph ], [ %31, %21 ]
  %10 = load ptr, ptr %9, align 8
  %11 = load ptr, ptr %10, align 8
  %12 = getelementptr inbounds i8, ptr %11, i64 40
  %13 = load ptr, ptr %12, align 8
  %14 = tail call noundef i64 %13(ptr noundef nonnull align 8 dereferenceable(8) %10)
  %15 = load ptr, ptr %6, align 8
  %16 = load ptr, ptr %15, align 8
  %17 = load ptr, ptr %16, align 8
  %18 = getelementptr inbounds i8, ptr %17, i64 32
  %19 = load ptr, ptr %18, align 8
  %20 = tail call noundef zeroext i1 %19(ptr noundef nonnull align 8 dereferenceable(8) %16, i32 noundef %.067)
  br i1 %20, label %._crit_edge, label %21

21:                                               ; preds = %8
  %22 = zext i32 %.067 to i64
  %23 = add i64 %14, %22
  %24 = load ptr, ptr %6, align 8
  %25 = load ptr, ptr %24, align 8
  %26 = load ptr, ptr %25, align 8
  %27 = getelementptr inbounds i8, ptr %26, i64 40
  %28 = load ptr, ptr %27, align 8
  %29 = tail call noundef i64 %28(ptr noundef nonnull align 8 dereferenceable(8) %25)
  %30 = sub i64 %23, %29
  %31 = trunc i64 %30 to i32
  %32 = load i64, ptr %7, align 8
  %33 = add nsw i64 %32, %29
  store i64 %33, ptr %7, align 8
  %34 = load ptr, ptr %6, align 8
  %35 = getelementptr inbounds i8, ptr %34, i64 8
  store ptr %35, ptr %6, align 8
  %36 = load i32, ptr %3, align 8
  %37 = add nsw i32 %36, -1
  store i32 %37, ptr %3, align 8
  %38 = icmp sgt i32 %36, 1
  br i1 %38, label %8, label %._crit_edge, !llvm.loop !10

._crit_edge:                                      ; preds = %8, %21, %2
  %.lcssa = phi i1 [ false, %2 ], [ %20, %21 ], [ %20, %8 ]
  ret i1 %.lcssa
}